target datalayout = "e-m:e-p270:32:32-p271:32:32-p272:64:64-i64:64-i128:128-f80:128-n8:16:32:64-S128"
target triple = "x86_64-unknown-linux-gnu"

%"class.google::protobuf::internal::LogMessage" = type { i32, ptr, i32, %"class.std::__cxx11::basic_string" }
%"class.std::__cxx11::basic_string" = type { %"struct.std::__cxx11::basic_string<char>::_Alloc_hider", i64, %union.anon }
%"struct.std::__cxx11::basic_string<char>::_Alloc_hider" = type { ptr }
%union.anon = type { i64, [8 x i8] }
%"class.google::protobuf::internal::LogFinisher" = type { i8 }
%"class.std::allocator" = type { i8 }

@.str = private unnamed_addr constant [151 x i8] c"generated/home/dtcxzyw/WorkSpace/Projects/compilers/llvm-opt-benchmark/bench/yalantinglibs/yalantinglibs/src/struct_pb/conformance/conformance_test.cc\00", align 1
@.str.8 = private unnamed_addr constant [1 x i8] zeroinitializer, align 1
@.str.12 = private unnamed_addr constant [26 x i8] c"Unspecified output format\00", align 1
@.str.13 = private unnamed_addr constant [15 x i8] c"ProtobufOutput\00", align 1
@.str.14 = private unnamed_addr constant [11 x i8] c"JsonOutput\00", align 1
@.str.15 = private unnamed_addr constant [17 x i8] c"TextFormatOutput\00", align 1

; Function Attrs: mustprogress uwtable
define dso_local void @_ZNK6google8protobuf20ConformanceTestSuite25ConformanceRequestSetting18OutputFormatStringB5cxx11EN11conformance10WireFormatE(ptr noalias sret(%"class.std::__cxx11::basic_string") align 8 %agg.result, ptr noundef nonnull align 8 dereferenceable(136) %this, i32 noundef %format) unnamed_addr #4 align 2 personality ptr @__gxx_personality_v0 {
entry:
  %result.ptr = alloca ptr, align 8
  %this.addr = alloca ptr, align 8
  %format.addr = alloca i32, align 4
  %ref.tmp = alloca %"class.std::allocator", align 1
  %exn.slot = alloca ptr, align 8
  %ehselector.slot = alloca i32, align 4
  %ref.tmp3 = alloca %"class.std::allocator", align 1
  %ref.tmp7 = alloca %"class.std::allocator", align 1
  %ref.tmp10 = alloca %"class.google::protobuf::internal::LogMessage", align 8
  %ref.tmp13 = alloca %"class.google::protobuf::internal::LogFinisher", align 1
  %ref.tmp15 = alloca %"class.std::allocator", align 1
  store ptr %agg.result, ptr %result.ptr, align 8
  store ptr %this, ptr %this.addr, align 8
  store i32 %format, ptr %format.addr, align 4
  %0 = load i32, ptr %format.addr, align 4
  switch i32 %0, label %sw.default [
    i32 1, label %sw.bb
    i32 2, label %sw.bb2
    i32 4, label %sw.bb6
  ]

sw.bb:                                            ; preds = %entry
  call void @_ZNSaIcEC1Ev(ptr noundef nonnull align 1 dereferenceable(1) %ref.tmp) #3
  invoke void @_ZNSt7__cxx1112basic_stringIcSt11char_traitsIcESaIcEEC2IS3_EEPKcRKS3_(ptr noundef nonnull align 8 dereferenceable(32) %agg.result, ptr noundef @.str.13, ptr noundef nonnull align 1 dereferenceable(1) %ref.tmp)
          to label %invoke.cont unwind label %lpad

invoke.cont:                                      ; preds = %sw.bb
  call void @_ZNSaIcED1Ev(ptr noundef nonnull align 1 dereferenceable(1) %ref.tmp) #3
  br label %return

lpad:                                             ; preds = %sw.bb
  %1 = landingpad { ptr, i32 }
          cleanup
  %2 = extractvalue { ptr, i32 } %1, 0
  store ptr %2, ptr %exn.slot, align 8
  %3 = extractvalue { ptr, i32 } %1, 1
  store i32 %3, ptr %ehselector.slot, align 4
  call void @_ZNSaIcED1Ev(ptr noundef nonnull align 1 dereferenceable(1) %ref.tmp) #3
  br label %eh.resume

sw.bb2:                                           ; preds = %entry
  call void @_ZNSaIcEC1Ev(ptr noundef nonnull align 1 dereferenceable(1) %ref.tmp3) #3
  invoke void @_ZNSt7__cxx1112basic_stringIcSt11char_traitsIcESaIcEEC2IS3_EEPKcRKS3_(ptr noundef nonnull align 8 dereferenceable(32) %agg.result, ptr noundef @.str.14, ptr noundef nonnull align 1 dereferenceable(1) %ref.tmp3)
          to label %invoke.cont5 unwind label %lpad4

invoke.cont5:                                     ; preds = %sw.bb2
  call void @_ZNSaIcED1Ev(ptr noundef nonnull align 1 dereferenceable(1) %ref.tmp3) #3
  br label %return

lpad4:                                            ; preds = %sw.bb2
  %4 = landingpad { ptr, i32 }
          cleanup
  %5 = extractvalue { ptr, i32 } %4, 0
  store ptr %5, ptr %exn.slot, align 8
  %6 = extractvalue { ptr, i32 } %4, 1
  store i32 %6, ptr %ehselector.slot, align 4
  call void @_ZNSaIcED1Ev(ptr noundef nonnull align 1 dereferenceable(1) %ref.tmp3) #3
  br label %eh.resume

sw.bb6:                                           ; preds = %entry
  call void @_ZNSaIcEC1Ev(ptr noundef nonnull align 1 dereferenceable(1) %ref.tmp7) #3
  invoke void @_ZNSt7__cxx1112basic_stringIcSt11char_traitsIcESaIcEEC2IS3_EEPKcRKS3_(ptr noundef nonnull align 8 dereferenceable(32) %agg.result, ptr noundef @.str.15, ptr noundef nonnull align 1 dereferenceable(1) %ref.tmp7)
          to label %invoke.cont9 unwind label %lpad8

invoke.cont9:                                     ; preds = %sw.bb6
  call void @_ZNSaIcED1Ev(ptr noundef nonnull align 1 dereferenceable(1) %ref.tmp7) #3
  br label %return

lpad8:                                            ; preds = %sw.bb6
  %7 = landingpad { ptr, i32 }
          cleanup
  %8 = extractvalue { ptr, i32 } %7, 0
  store ptr %8, ptr %exn.slot, align 8
  %9 = extractvalue { ptr, i32 } %7, 1
  store i32 %9, ptr %ehselector.slot, align 4
  call void @_ZNSaIcED1Ev(ptr noundef nonnull align 1 dereferenceable(1) %ref.tmp7) #3
  br label %eh.resume

sw.default:                                       ; preds = %entry
  call void @_ZN6google8protobuf8internal10LogMessageC1ENS0_8LogLevelEPKci(ptr noundef nonnull align 8 dereferenceable(56) %ref.tmp10, i32 noundef 3, ptr noundef @.str, i32 noundef 174)
  %call = invoke noundef nonnull align 8 dereferenceable(56) ptr @_ZN6google8protobuf8internal10LogMessagelsEPKc(ptr noundef nonnull align 8 dereferenceable(56) %ref.tmp10, ptr noundef @.str.12)
          to label %invoke.cont12 unwind label %lpad11

invoke.cont12:                                    ; preds = %sw.default
  invoke void @_ZN6google8protobuf8internal11LogFinisheraSERNS1_10LogMessageE(ptr noundef nonnull align 1 dereferenceable(1) %ref.tmp13, ptr noundef nonnull align 8 dereferenceable(56) %call)
          to label %invoke.cont14 unwind label %lpad11

invoke.cont14:                                    ; preds = %invoke.cont12
  call void @_ZN6google8protobuf8internal10LogMessageD1Ev(ptr noundef nonnull align 8 dereferenceable(56) %ref.tmp10) #3
  br label %sw.epilog

sw.epilog:                                        ; preds = %invoke.cont14
  call void @_ZNSaIcEC1Ev(ptr noundef nonnull align 1 dereferenceable(1) %ref.tmp15) #3
  invoke void @_ZNSt7__cxx1112basic_stringIcSt11char_traitsIcESaIcEEC2IS3_EEPKcRKS3_(ptr noundef nonnull align 8 dereferenceable(32) %agg.result, ptr noundef @.str.8, ptr noundef nonnull align 1 dereferenceable(1) %ref.tmp15)
          to label %invoke.cont17 unwind label %lpad16

invoke.cont17:                                    ; preds = %sw.epilog
  call void @_ZNSaIcED1Ev(ptr noundef nonnull align 1 dereferenceable(1) %ref.tmp15) #3
  br label %return

lpad11:                                           ; preds = %invoke.cont12, %sw.default
  %10 = landingpad { ptr, i32 }
          cleanup
  %11 = extractvalue { ptr, i32 } %10, 0
  store ptr %11, ptr %exn.slot, align 8
  %12 = extractvalue { ptr, i32 } %10, 1
  store i32 %12, ptr %ehselector.slot, align 4
  call void @_ZN6google8protobuf8internal10LogMessageD1Ev(ptr noundef nonnull align 8 dereferenceable(56) %ref.tmp10) #3
  br label %eh.resume

lpad16:                                           ; preds = %sw.epilog
  %13 = landingpad { ptr, i32 }
          cleanup
  %14 = extractvalue { ptr, i32 } %13, 0
  store ptr %14, ptr %exn.slot, align 8
  %15 = extractvalue { ptr, i32 } %13, 1
  store i32 %15, ptr %ehselector.slot, align 4
  call void @_ZNSaIcED1Ev(ptr noundef nonnull align 1 dereferenceable(1) %ref.tmp15) #3
  br label %eh.resume

return:                                           ; preds = %invoke.cont17, %invoke.cont9, %invoke.cont5, %invoke.cont
  ret void

eh.resume:                                        ; preds = %lpad16, %lpad11, %lpad8, %lpad4, %lpad
  %exn = load ptr, ptr %exn.slot, align 8
  %sel = load i32, ptr %ehselector.slot, align 4
  %lpad.val = insertvalue { ptr, i32 } poison, ptr %exn, 0
  %lpad.val18 = insertvalue { ptr, i32 } %lpad.val, i32 %sel, 1
  resume { ptr, i32 } %lpad.val18
}