; Function Attrs: mustprogress uwtable
define dso_local void @_ZNK6google8protobuf20ConformanceTestSuite25ConformanceRequestSetting18OutputFormatStringB5cxx11EN11conformance10WireFormatE(ptr noalias sret(%"class.std::__cxx11::basic_string") align 8 %agg.result, ptr nocapture nonnull readnone align 8 %this, i32 noundef %format) unnamed_addr #3 align 2 personality ptr @__gxx_personality_v0 {
entry:
  %ref.tmp = alloca %"class.std::allocator", align 1
  %ref.tmp3 = alloca %"class.std::allocator", align 1
  %ref.tmp7 = alloca %"class.std::allocator", align 1
  %ref.tmp10 = alloca %"class.google::protobuf::internal::LogMessage", align 8
  %ref.tmp13 = alloca %"class.google::protobuf::internal::LogFinisher", align 1
  %ref.tmp15 = alloca %"class.std::allocator", align 1
  switch i32 %format, label %sw.default [
    i32 1, label %sw.bb
    i32 2, label %sw.bb2
    i32 4, label %sw.bb6
  ]

sw.bb:                                            ; preds = %entry
  call void @_ZNSaIcEC1Ev(ptr noundef nonnull align 1 dereferenceable(1) %ref.tmp) #18
  invoke void @_ZNSt7__cxx1112basic_stringIcSt11char_traitsIcESaIcEEC2IS3_EEPKcRKS3_(ptr noundef nonnull align 8 dereferenceable(32) %agg.result, ptr noundef nonnull @.str.13, ptr noundef nonnull align 1 dereferenceable(1) %ref.tmp)
          to label %return unwind label %lpad

lpad:                                             ; preds = %sw.bb
  %0 = landingpad { ptr, i32 }
          cleanup
  call void @_ZNSaIcED1Ev(ptr noundef nonnull align 1 dereferenceable(1) %ref.tmp) #18
  br label %eh.resume

sw.bb2:                                           ; preds = %entry
  call void @_ZNSaIcEC1Ev(ptr noundef nonnull align 1 dereferenceable(1) %ref.tmp3) #18
  invoke void @_ZNSt7__cxx1112basic_stringIcSt11char_traitsIcESaIcEEC2IS3_EEPKcRKS3_(ptr noundef nonnull align 8 dereferenceable(32) %agg.result, ptr noundef nonnull @.str.14, ptr noundef nonnull align 1 dereferenceable(1) %ref.tmp3)
          to label %return unwind label %lpad4

lpad4:                                            ; preds = %sw.bb2
  %1 = landingpad { ptr, i32 }
          cleanup
  call void @_ZNSaIcED1Ev(ptr noundef nonnull align 1 dereferenceable(1) %ref.tmp3) #18
  br label %eh.resume

sw.bb6:                                           ; preds = %entry
  call void @_ZNSaIcEC1Ev(ptr noundef nonnull align 1 dereferenceable(1) %ref.tmp7) #18
  invoke void @_ZNSt7__cxx1112basic_stringIcSt11char_traitsIcESaIcEEC2IS3_EEPKcRKS3_(ptr noundef nonnull align 8 dereferenceable(32) %agg.result, ptr noundef nonnull @.str.15, ptr noundef nonnull align 1 dereferenceable(1) %ref.tmp7)
          to label %return unwind label %lpad8

lpad8:                                            ; preds = %sw.bb6
  %2 = landingpad { ptr, i32 }
          cleanup
  call void @_ZNSaIcED1Ev(ptr noundef nonnull align 1 dereferenceable(1) %ref.tmp7) #18
  br label %eh.resume

sw.default:                                       ; preds = %entry
  call void @_ZN6google8protobuf8internal10LogMessageC1ENS0_8LogLevelEPKci(ptr noundef nonnull align 8 dereferenceable(56) %ref.tmp10, i32 noundef 3, ptr noundef nonnull @.str, i32 noundef 174)
  %call = invoke noundef nonnull align 8 dereferenceable(56) ptr @_ZN6google8protobuf8internal10LogMessagelsEPKc(ptr noundef nonnull align 8 dereferenceable(56) %ref.tmp10, ptr noundef nonnull @.str.12)
          to label %invoke.cont12 unwind label %lpad11

invoke.cont12:                                    ; preds = %sw.default
  invoke void @_ZN6google8protobuf8internal11LogFinisheraSERNS1_10LogMessageE(ptr noundef nonnull align 1 dereferenceable(1) %ref.tmp13, ptr noundef nonnull align 8 dereferenceable(56) %call)
          to label %invoke.cont14 unwind label %lpad11

invoke.cont14:                                    ; preds = %invoke.cont12
  call void @_ZN6google8protobuf8internal10LogMessageD1Ev(ptr noundef nonnull align 8 dereferenceable(56) %ref.tmp10) #18
  call void @_ZNSaIcEC1Ev(ptr noundef nonnull align 1 dereferenceable(1) %ref.tmp15) #18
  invoke void @_ZNSt7__cxx1112basic_stringIcSt11char_traitsIcESaIcEEC2IS3_EEPKcRKS3_(ptr noundef nonnull align 8 dereferenceable(32) %agg.result, ptr noundef nonnull @.str.8, ptr noundef nonnull align 1 dereferenceable(1) %ref.tmp15)
          to label %return unwind label %lpad16

lpad11:                                           ; preds = %invoke.cont12, %sw.default
  %3 = landingpad { ptr, i32 }
          cleanup
  call void @_ZN6google8protobuf8internal10LogMessageD1Ev(ptr noundef nonnull align 8 dereferenceable(56) %ref.tmp10) #18
  br label %eh.resume

lpad16:                                           ; preds = %invoke.cont14
  %4 = landingpad { ptr, i32 }
          cleanup
  call void @_ZNSaIcED1Ev(ptr noundef nonnull align 1 dereferenceable(1) %ref.tmp15) #18
  br label %eh.resume

return:                                           ; preds = %invoke.cont14, %sw.bb6, %sw.bb2, %sw.bb
  %ref.tmp15.sink = phi ptr [ %ref.tmp, %sw.bb ], [ %ref.tmp3, %sw.bb2 ], [ %ref.tmp7, %sw.bb6 ], [ %ref.tmp15, %invoke.cont14 ]
  call void @_ZNSaIcED1Ev(ptr noundef nonnull align 1 dereferenceable(1) %ref.tmp15.sink) #18
  ret void

eh.resume:                                        ; preds = %lpad16, %lpad11, %lpad8, %lpad4, %lpad
  %.pn = phi { ptr, i32 } [ %4, %lpad16 ], [ %3, %lpad11 ], [ %2, %lpad8 ], [ %1, %lpad4 ], [ %0, %lpad ]
  resume { ptr, i32 } %.pn
}